-----BEGIN CERTIFICATE-----
MIIHUzCCBjugAwIBAgIMIUBdacuHP8GIiOhuMA0GCSqGSIb3DQEBCwUAMGIxCzAJ
BgNVBAYTAkJFMRkwFwYDVQQKExBHbG9iYWxTaWduIG52LXNhMTgwNgYDVQQDEy9H
bG9iYWxTaWduIEV4dGVuZGVkIFZhbGlkYXRpb24gQ0EgLSBTSEEyNTYgLSBHMzAe
Fw0yMTEyMTYwOTQ2MTNaFw0yMzAxMTcwOTQ2MTNaMIHqMR0wGwYDVQQPDBRQcml2
YXRlIE9yZ2FuaXphdGlvbjEVMBMGA1UEBRMMMDQ2Ni4xNTguNjQwMRMwEQYLKwYB
BAGCNzwCAQMTAkJFMQswCQYDVQQGEwJCRTEXMBUGA1UECBMOVmxhYW1zLUJyYWJh
bnQxDzANBgNVBAcTBkxldXZlbjEeMBwGA1UECRMVUGhpbGlwc3NpdGUgNSAgYnVz
IDEzMS4wLAYDVQQKDCVEb21haW5lIE5hbWUgUmVnaXN0cmF0aW9uIEJlbGdpw6sg
VlpXMRYwFAYDVQQDEw1kbnNiZWxnaXVtLmJlMIIBIjANBgkqhkiG9w0BAQEFAAOC
AQ8AMIIBCgKCAQEAqb2tQpTVCbi++peYsweN0GXgvxyLmUlHe+nSIYw3jjdYQy1x
S32JlvtnFqrv/b+0s3lQOdOe4YnBVdWo7btoa318FehjLnKC9HuoVbhdhdRi9jzg
KxdQc0Ety620YfSsf67WexDU+PGwHwsMfmKLszupv9TAvjwPB18GMZPDyBV0pmoF
I68NfPmyCZEvxuwgQ7QGNboQJo2WSlHp0wNghUWK8koqyvgj00paohukVn5NJiiq
R4wRYTQ7saHsrfMKyx93DJ2nGeNOMsSRDN6GuooR+CC/DJvuz4y1Ow5ee9uRRuJi
IlBiuOpJJTrYrKGOgLcurJOL+VR4HAKNGVH3oQIDAQABo4IDfjCCA3owDgYDVR0P
AQH/BAQDAgWgMIGWBggrBgEFBQcBAQSBiTCBhjBHBggrBgEFBQcwAoY7aHR0cDov
L3NlY3VyZS5nbG9iYWxzaWduLmNvbS9jYWNlcnQvZ3NleHRlbmR2YWxzaGEyZzNy
My5jcnQwOwYIKwYBBQUHMAGGL2h0dHA6Ly9vY3NwMi5nbG9iYWxzaWduLmNvbS9n
c2V4dGVuZHZhbHNoYTJnM3IzMFUGA1UdIAROMEwwQQYJKwYBBAGgMgEBMDQwMgYI
KwYBBQUHAgEWJmh0dHBzOi8vd3d3Lmdsb2JhbHNpZ24uY29tL3JlcG9zaXRvcnkv
MAcGBWeBDAEBMAkGA1UdEwQCMAAwRQYDVR0fBD4wPDA6oDigNoY0aHR0cDovL2Ny
bC5nbG9iYWxzaWduLmNvbS9ncy9nc2V4dGVuZHZhbHNoYTJnM3IzLmNybDBFBgNV
HREEPjA8gg1kbnNiZWxnaXVtLmJlghhwcm9kdWN0aW9uLmRuc2JlbGdpdW0uYmWC
EXd3dy5kbnNiZWxnaXVtLmJlMB0GA1UdJQQWMBQGCCsGAQUFBwMBBggrBgEFBQcD
AjAfBgNVHSMEGDAWgBTds+dtqC7oxU5uz3TmdTyUFc7oHTAdBgNVHQ4EFgQUNy1+
W4Tq7OlaH62K3KT0RLSGQxYwggF+BgorBgEEAdZ5AgQCBIIBbgSCAWoBaAB2AOg+
0No+9QY1MudXKLyJa8kD08vREWvs62nhd31tBr1uAAABfcKilEAAAAQDAEcwRQIg
DTGnQ8aoBtM1BV9PY46HweRKvM6hQ5qbIz+oH83qMDQCIQDZXr1nukWY1X3DDl3j
ZCeELddxWcTwd9jGaCm2C4K/BAB2AG9Tdqwx8DEZ2JkApFEV/3cVHBHZAsEAKQaN
sgiaN9kTAAABfcKilEUAAAQDAEcwRQIgX4xXI+mjQg7+/q7XIp70ZBbFnr0ZvsJM
rfn1FYIEODcCIQC2Rq0MluHBQs2j3WhsOla2l3wRJT77YhpffCkaVbG1yQB2AFWB
1MIWkDYBSuoLm1c8U/DA5Dh4cCUIFy+jqh0HE9MMAAABfcKilGMAAAQDAEcwRQIh
AO2Ijq/GJRBcbq47rH3QSRsquKwfz7or7+VULfWMb8u8AiBPNyKuqwihgG4fb/Uz
ENDwfo0pdwJm56z6EmUYLdGc3jANBgkqhkiG9w0BAQsFAAOCAQEASIkZkfU+xexk
06+kuybyDI/WwS6mLsvCgiGpPyyK60GpqNolVrFgCwzvzyQRCpWtcMepNQqvZGYv
2nEeL0GVTLJ6YwEoVs2O97avz2qPEROl0S2UvNzCikoDApNJxZnmntgwQ6njnqh7
ODTqZS7EqXSGm1AtTJvl6/ve/b5v/cZzSkFcgwaQftEkDgDnBejfaEGLrqveNbjc
K3a+cjLAcd5sDzc/kVj8NAn9AGqCrSYALDHl80aP6nCO2VBEOLQdt7Zm5/KM4+H7
b8AmSxeH3ErBM/VeL6b0XyKrkfr526ajlKTS2I4XdGxar6/ikW62Z5FcWddxuTLP
SwisBef6Gw==
-----END CERTIFICATE-----

# The following is only for readability purposes
$ openssl x509 -in dnsbelgium-be-0.pem -noout -text
Certificate:
    Data:
        Version: 3 (0x2)
        Serial Number:
            21:40:5d:69:cb:87:3f:c1:88:88:e8:6e
    Signature Algorithm: sha256WithRSAEncryption
        Issuer: C=BE, O=GlobalSign nv-sa, CN=GlobalSign Extended Validation CA - SHA256 - G3
        Validity
            Not Before: Dec 16 09:46:13 2021 GMT
            Not After : Jan 17 09:46:13 2023 GMT
        Subject: businessCategory=Private Organization/serialNumber=0466.158.640/jurisdictionCountryName=BE, C=BE, ST=Vlaams-Brabant, L=Leuven/street=Philipssite 5  bus 13, O=Domaine Name Registration Belgi\xC3\xAB VZW, CN=dnsbelgium.be
        Subject Public Key Info:
            Public Key Algorithm: rsaEncryption
                Public-Key: (2048 bit)
                Modulus:
                    00:a9:bd:ad:42:94:d5:09:b8:be:fa:97:98:b3:07:
                    8d:d0:65:e0:bf:1c:8b:99:49:47:7b:e9:d2:21:8c:
                    37:8e:37:58:43:2d:71:4b:7d:89:96:fb:67:16:aa:
                    ef:fd:bf:b4:b3:79:50:39:d3:9e:e1:89:c1:55:d5:
                    a8:ed:bb:68:6b:7d:7c:15:e8:63:2e:72:82:f4:7b:
                    a8:55:b8:5d:85:d4:62:f6:3c:e0:2b:17:50:73:41:
                    2d:cb:ad:b4:61:f4:ac:7f:ae:d6:7b:10:d4:f8:f1:
                    b0:1f:0b:0c:7e:62:8b:b3:3b:a9:bf:d4:c0:be:3c:
                    0f:07:5f:06:31:93:c3:c8:15:74:a6:6a:05:23:af:
                    0d:7c:f9:b2:09:91:2f:c6:ec:20:43:b4:06:35:ba:
                    10:26:8d:96:4a:51:e9:d3:03:60:85:45:8a:f2:4a:
                    2a:ca:f8:23:d3:4a:5a:a2:1b:a4:56:7e:4d:26:28:
                    aa:47:8c:11:61:34:3b:b1:a1:ec:ad:f3:0a:cb:1f:
                    77:0c:9d:a7:19:e3:4e:32:c4:91:0c:de:86:ba:8a:
                    11:f8:20:bf:0c:9b:ee:cf:8c:b5:3b:0e:5e:7b:db:
                    91:46:e2:62:22:50:62:b8:ea:49:25:3a:d8:ac:a1:
                    8e:80:b7:2e:ac:93:8b:f9:54:78:1c:02:8d:19:51:
                    f7:a1
                Exponent: 65537 (0x10001)
        X509v3 extensions:
            X509v3 Key Usage: critical
                Digital Signature, Key Encipherment
            Authority Information Access:
                CA Issuers - URI:http://secure.globalsign.com/cacert/gsextendvalsha2g3r3.crt
                OCSP - URI:http://ocsp2.globalsign.com/gsextendvalsha2g3r3

            X509v3 Certificate Policies:
                Policy: 1.3.6.1.4.1.4146.1.1
                  CPS: https://www.globalsign.com/repository/
                Policy: 2.23.140.1.1

            X509v3 Basic Constraints:
                CA:FALSE
            X509v3 CRL Distribution Points:

                Full Name:
                  URI:http://crl.globalsign.com/gs/gsextendvalsha2g3r3.crl

            X509v3 Subject Alternative Name:
                DNS:dnsbelgium.be, DNS:production.dnsbelgium.be, DNS:www.dnsbelgium.be
            X509v3 Extended Key Usage:
                TLS Web Server Authentication, TLS Web Client Authentication
            X509v3 Authority Key Identifier:
                keyid:DD:B3:E7:6D:A8:2E:E8:C5:4E:6E:CF:74:E6:75:3C:94:15:CE:E8:1D

            X509v3 Subject Key Identifier:
                37:2D:7E:5B:84:EA:EC:E9:5A:1F:AD:8A:DC:A4:F4:44:B4:86:43:16
            1.3.6.1.4.1.11129.2.4.2:
1.C....5._Oc....J...C..#?....04.!..^.g.E..}..].d'.-.qY..w..h)......v.oSv.1.1.....Q..w.......).....7.....}...E.....G0E. _.W#..B....."..d.......L......87.!..F.....B...hl:V..|.%>.b._|).U....v.U.....6.J...W<S...8xp%../..........}...c.....G0E.!......%.\n.;.}.I.*.....+..T-..o... O7".....n.o.3...~.)w.f....e.-...
    Signature Algorithm: sha256WithRSAEncryption
         48:89:19:91:f5:3e:c5:ec:64:d3:af:a4:bb:26:f2:0c:8f:d6:
         c1:2e:a6:2e:cb:c2:82:21:a9:3f:2c:8a:eb:41:a9:a8:da:25:
         56:b1:60:0b:0c:ef:cf:24:11:0a:95:ad:70:c7:a9:35:0a:af:
         64:66:2f:da:71:1e:2f:41:95:4c:b2:7a:63:01:28:56:cd:8e:
         f7:b6:af:cf:6a:8f:11:13:a5:d1:2d:94:bc:dc:c2:8a:4a:03:
         02:93:49:c5:99:e6:9e:d8:30:43:a9:e3:9e:a8:7b:38:34:ea:
         65:2e:c4:a9:74:86:9b:50:2d:4c:9b:e5:eb:fb:de:fd:be:6f:
         fd:c6:73:4a:41:5c:83:06:90:7e:d1:24:0e:00:e7:05:e8:df:
         68:41:8b:ae:ab:de:35:b8:dc:2b:76:be:72:32:c0:71:de:6c:
         0f:37:3f:91:58:fc:34:09:fd:00:6a:82:ad:26:00:2c:31:e5:
         f3:46:8f:ea:70:8e:d9:50:44:38:b4:1d:b7:b6:66:e7:f2:8c:
         e3:e1:fb:6f:c0:26:4b:17:87:dc:4a:c1:33:f5:5e:2f:a6:f4:
         5f:22:ab:91:fa:f9:db:a6:a3:94:a4:d2:d8:8e:17:74:6c:5a:
         af:af:e2:91:6e:b6:67:91:5c:59:d7:71:b9:32:cf:4b:08:ac:
         05:e7:fa:1b

