-----BEGIN CERTIFICATE-----
MIIFpDCCA4wCCQCpgZmmSaMjJzANBgkqhkiG9w0BAQsFADCBkzELMAkGA1UEBhMC
QkUxEzARBgNVBAgMClRlc3QgU3RhdGUxEjAQBgNVBAcMCVRlc3QgQ2l0eTEaMBgG
A1UECgwRVGVzdCBPcmdhbml6YXRpb24xEDAOBgNVBAsMB1Rlc3QgT1UxEDAOBgNV
BAMMB3Rlc3QuYmUxGzAZBgkqhkiG9w0BCQEWDHRlc3RAdGVzdC5iZTAeFw0yMTEy
MjIxMjIxMDlaFw0yMjEyMjIxMjIxMDlaMIGTMQswCQYDVQQGEwJCRTETMBEGA1UE
CAwKVGVzdCBTdGF0ZTESMBAGA1UEBwwJVGVzdCBDaXR5MRowGAYDVQQKDBFUZXN0
IE9yZ2FuaXphdGlvbjEQMA4GA1UECwwHVGVzdCBPVTEQMA4GA1UEAwwHdGVzdC5i
ZTEbMBkGCSqGSIb3DQEJARYMdGVzdEB0ZXN0LmJlMIICIjANBgkqhkiG9w0BAQEF
AAOCAg8AMIICCgKCAgEA3fwRuUq2t1D3llODN9fZJkiFJmdVAmXtyY7D6inJ6q79
pyN+pD74fRjnIfDe7vEmYGbC01KOzZ4Y1zuJ0cyJEBKDV3uJ/zFAEhqxW2ROz7ZI
55GeXuoRN6kHkq2iZIh/hdLu7zCKy53rwOAtRLppztBYvT7FmMfahCyuBcYdFa35
eF+uRB9CQ6Jrts0Fed4AIpa2uJZtk1n9idPX7VIPa3EszlPAUO8rfcYfF0gd7JBs
XYItoqzdPIdN6kkge2NC6BNsDOMYSE2n4mASZtH3JQCSSyrGN3jeX8WgRB2xsjcE
kKK+9CPUotVrqDRCfVlFSqAhytwDZnZ0Non3Odnex4ggvjb86qGVmhV8OPLN5XuQ
+KdsjVDPvxz5+QMUgH/Nxwgwpdp4WS1Ul/72WckJhlNxBrXi1YfHI56CGlQX2dW2
UPxDiOnaPYrBFtIfhIPxNs7sTTGUTnN2+esWH3/72bogx1AlbcJgML4gCo/RXKqc
+z+9t0zaJKA3XH1lq1grq4F6pHUzxnCYwJzOXr7evV1mNJvmtNo6fzi3bI61qrww
VrdwpweD2auR3jDWkuqyx80mPK1oQJgUx6521tO/vvccbdytPUqgNpjw66fzYWkb
IMjtQ3xbFojKzU2PtDSaiUCPTmdfaIH4pKSo7B+ehD+JlV6zjz/rWFNrEwH9BusC
AwEAATANBgkqhkiG9w0BAQsFAAOCAgEAv8B6X7gBP6EvLcezpfpYkzYQa1zEJLl7
9Rj7L+uQIWUkU/6+3Hk9mHy/7/Jns00mjJX82iZ0QU1tkg3cW6Xkx+AFPTZsN0Vm
1BLjEHu9sWY8QD5pLw7K6+alfQcn7kgJgZtm04AfG7uh8V9AWU5I9hFVEQOR678k
61QHutX9HBTKQNfP4TckfpmFd5VfXzVjucpqf0u/SiMi9T3MmJB4O2D7WMhjzg9f
TYJmIuwuNCP2BOkqfE72BMmnb+YAG+MDrKWiDx/tEFO1dOuCwgBjhT1EyYS5LjmR
xK3bBlJJHa59hMKI8+iJYZ4xZ1iKKH/2TJL1KL9DZTtrga5OVC1R2Q/rZU8DU069
MTjY0Pwy2bBQ1RiZ0zytM6QXuW1ddugg4ellEAyjX2jR7OOvVRSwJygAIm64CVjq
weXFE417ZuIUKz4m3uFUq8+CE7HWJRLF4UnkUWpuswSWkB7LuRnifqhPg4YqFzex
RYysWBF9Ow55rdyD9vKSE+WlAVA11Jf4ulNxwulAzGXiQLAkWK8MeB7SMp7fUGFQ
SNcYfMy94ElCLXu6TQ4/6hgRwqVkk1rjvDn+riXYRsSORT+xv0czJRnCSLiA5HTV
MXHNAyvECXXPssEbbXSwJXdNBQvcsP9jxBAtSeZsBaJd1/0xvyBHtnZ9Hm4FvSay
AEdgqfx7Vzw=
-----END CERTIFICATE-----

# The following is only for readability purposes
$ openssl x509 -in self-signed.pem -noout -text
Certificate:
    Data:
        Version: 1 (0x0)
        Serial Number: 12214212603884544807 (0xa98199a649a32327)
    Signature Algorithm: sha256WithRSAEncryption
        Issuer: C=BE, ST=Test State, L=Test City, O=Test Organization, OU=Test OU, CN=test.be/emailAddress=test@test.be
        Validity
            Not Before: Dec 22 12:21:09 2021 GMT
            Not After : Dec 22 12:21:09 2022 GMT
        Subject: C=BE, ST=Test State, L=Test City, O=Test Organization, OU=Test OU, CN=test.be/emailAddress=test@test.be
        Subject Public Key Info:
            Public Key Algorithm: rsaEncryption
                Public-Key: (4096 bit)
                Modulus:
                    00:dd:fc:11:b9:4a:b6:b7:50:f7:96:53:83:37:d7:
                    d9:26:48:85:26:67:55:02:65:ed:c9:8e:c3:ea:29:
                    c9:ea:ae:fd:a7:23:7e:a4:3e:f8:7d:18:e7:21:f0:
                    de:ee:f1:26:60:66:c2:d3:52:8e:cd:9e:18:d7:3b:
                    89:d1:cc:89:10:12:83:57:7b:89:ff:31:40:12:1a:
                    b1:5b:64:4e:cf:b6:48:e7:91:9e:5e:ea:11:37:a9:
                    07:92:ad:a2:64:88:7f:85:d2:ee:ef:30:8a:cb:9d:
                    eb:c0:e0:2d:44:ba:69:ce:d0:58:bd:3e:c5:98:c7:
                    da:84:2c:ae:05:c6:1d:15:ad:f9:78:5f:ae:44:1f:
                    42:43:a2:6b:b6:cd:05:79:de:00:22:96:b6:b8:96:
                    6d:93:59:fd:89:d3:d7:ed:52:0f:6b:71:2c:ce:53:
                    c0:50:ef:2b:7d:c6:1f:17:48:1d:ec:90:6c:5d:82:
                    2d:a2:ac:dd:3c:87:4d:ea:49:20:7b:63:42:e8:13:
                    6c:0c:e3:18:48:4d:a7:e2:60:12:66:d1:f7:25:00:
                    92:4b:2a:c6:37:78:de:5f:c5:a0:44:1d:b1:b2:37:
                    04:90:a2:be:f4:23:d4:a2:d5:6b:a8:34:42:7d:59:
                    45:4a:a0:21:ca:dc:03:66:76:74:36:89:f7:39:d9:
                    de:c7:88:20:be:36:fc:ea:a1:95:9a:15:7c:38:f2:
                    cd:e5:7b:90:f8:a7:6c:8d:50:cf:bf:1c:f9:f9:03:
                    14:80:7f:cd:c7:08:30:a5:da:78:59:2d:54:97:fe:
                    f6:59:c9:09:86:53:71:06:b5:e2:d5:87:c7:23:9e:
                    82:1a:54:17:d9:d5:b6:50:fc:43:88:e9:da:3d:8a:
                    c1:16:d2:1f:84:83:f1:36:ce:ec:4d:31:94:4e:73:
                    76:f9:eb:16:1f:7f:fb:d9:ba:20:c7:50:25:6d:c2:
                    60:30:be:20:0a:8f:d1:5c:aa:9c:fb:3f:bd:b7:4c:
                    da:24:a0:37:5c:7d:65:ab:58:2b:ab:81:7a:a4:75:
                    33:c6:70:98:c0:9c:ce:5e:be:de:bd:5d:66:34:9b:
                    e6:b4:da:3a:7f:38:b7:6c:8e:b5:aa:bc:30:56:b7:
                    70:a7:07:83:d9:ab:91:de:30:d6:92:ea:b2:c7:cd:
                    26:3c:ad:68:40:98:14:c7:ae:76:d6:d3:bf:be:f7:
                    1c:6d:dc:ad:3d:4a:a0:36:98:f0:eb:a7:f3:61:69:
                    1b:20:c8:ed:43:7c:5b:16:88:ca:cd:4d:8f:b4:34:
                    9a:89:40:8f:4e:67:5f:68:81:f8:a4:a4:a8:ec:1f:
                    9e:84:3f:89:95:5e:b3:8f:3f:eb:58:53:6b:13:01:
                    fd:06:eb
                Exponent: 65537 (0x10001)
    Signature Algorithm: sha256WithRSAEncryption
         bf:c0:7a:5f:b8:01:3f:a1:2f:2d:c7:b3:a5:fa:58:93:36:10:
         6b:5c:c4:24:b9:7b:f5:18:fb:2f:eb:90:21:65:24:53:fe:be:
         dc:79:3d:98:7c:bf:ef:f2:67:b3:4d:26:8c:95:fc:da:26:74:
         41:4d:6d:92:0d:dc:5b:a5:e4:c7:e0:05:3d:36:6c:37:45:66:
         d4:12:e3:10:7b:bd:b1:66:3c:40:3e:69:2f:0e:ca:eb:e6:a5:
         7d:07:27:ee:48:09:81:9b:66:d3:80:1f:1b:bb:a1:f1:5f:40:
         59:4e:48:f6:11:55:11:03:91:eb:bf:24:eb:54:07:ba:d5:fd:
         1c:14:ca:40:d7:cf:e1:37:24:7e:99:85:77:95:5f:5f:35:63:
         b9:ca:6a:7f:4b:bf:4a:23:22:f5:3d:cc:98:90:78:3b:60:fb:
         58:c8:63:ce:0f:5f:4d:82:66:22:ec:2e:34:23:f6:04:e9:2a:
         7c:4e:f6:04:c9:a7:6f:e6:00:1b:e3:03:ac:a5:a2:0f:1f:ed:
         10:53:b5:74:eb:82:c2:00:63:85:3d:44:c9:84:b9:2e:39:91:
         c4:ad:db:06:52:49:1d:ae:7d:84:c2:88:f3:e8:89:61:9e:31:
         67:58:8a:28:7f:f6:4c:92:f5:28:bf:43:65:3b:6b:81:ae:4e:
         54:2d:51:d9:0f:eb:65:4f:03:53:4e:bd:31:38:d8:d0:fc:32:
         d9:b0:50:d5:18:99:d3:3c:ad:33:a4:17:b9:6d:5d:76:e8:20:
         e1:e9:65:10:0c:a3:5f:68:d1:ec:e3:af:55:14:b0:27:28:00:
         22:6e:b8:09:58:ea:c1:e5:c5:13:8d:7b:66:e2:14:2b:3e:26:
         de:e1:54:ab:cf:82:13:b1:d6:25:12:c5:e1:49:e4:51:6a:6e:
         b3:04:96:90:1e:cb:b9:19:e2:7e:a8:4f:83:86:2a:17:37:b1:
         45:8c:ac:58:11:7d:3b:0e:79:ad:dc:83:f6:f2:92:13:e5:a5:
         01:50:35:d4:97:f8:ba:53:71:c2:e9:40:cc:65:e2:40:b0:24:
         58:af:0c:78:1e:d2:32:9e:df:50:61:50:48:d7:18:7c:cc:bd:
         e0:49:42:2d:7b:ba:4d:0e:3f:ea:18:11:c2:a5:64:93:5a:e3:
         bc:39:fe:ae:25:d8:46:c4:8e:45:3f:b1:bf:47:33:25:19:c2:
         48:b8:80:e4:74:d5:31:71:cd:03:2b:c4:09:75:cf:b2:c1:1b:
         6d:74:b0:25:77:4d:05:0b:dc:b0:ff:63:c4:10:2d:49:e6:6c:
         05:a2:5d:d7:fd:31:bf:20:47:b6:76:7d:1e:6e:05:bd:26:b2:
         00:47:60:a9:fc:7b:57:3c
